(dp0
S'tr'
p1
(lp2
(V\u043a
p3
V\u0441
p4
F0.001876172607879925
tp5
a(V\u0430
p6
V\u0439
p7
F0.001876172607879925
tp8
a(V\u043a
p9
V\u0442
p10
F0.001876172607879925
tp11
asS'del'
p12
(lp13
(V\u043b
p14
F0.005628517823639775
tp15
a(Vt
p16
F0.001876172607879925
tp17
a(V\u0441
p18
F0.00375234521575985
tp19
a(Vz
p20
F0.001876172607879925
tp21
a(V\u0437
p22
F0.001876172607879925
tp23
a(V\u0440
p24
F0.001876172607879925
tp25
a(V\u043d
p26
F0.001876172607879925
tp27
a(V\u043c
p28
F0.00375234521575985
tp29
a(V\u0442
p30
F0.005628517823639775
tp31
a(V\u0434
p32
F0.001876172607879925
tp33
a(V\u0445
p34
F0.001876172607879925
tp35
a(V\u043e
p36
F0.005628517823639775
tp37
a(V\u0447
p38
F0.001876172607879925
tp39
a(V\u044d
p40
F0.001876172607879925
tp41
a(V\u043a
p42
F0.00375234521575985
tp43
a(V\u044c
p44
F0.005628517823639775
tp45
a(Vy
p46
F0.001876172607879925
tp47
a(V\u0432
p48
F0.005628517823639775
tp49
a(V\u044f
p50
F0.00375234521575985
tp51
a(V\u0438
p52
F0.005628517823639775
tp53
a(V\u0435
p54
F0.001876172607879925
tp55
asS'sub'
p56
(lp57
(g16
Vo
p58
F0.001876172607879925
tp59
a(V\u0438
p60
V\u043c
p61
F0.001876172607879925
tp62
a(Vc
p63
Vg
p64
F0.001876172607879925
tp65
a(V\u0435
p66
V\u0438
p67
F0.01125703564727955
tp68
a(V\u0435
p69
V\u044d
p70
F0.0075046904315197
tp71
a(V\u0433
p72
V\u043d
p73
F0.00375234521575985
tp74
a(V\u0435
p75
V\u044c
p76
F0.001876172607879925
tp77
a(V\u044f
p78
V\u0430
p79
F0.001876172607879925
tp80
a(Vi
p81
g46
F0.00375234521575985
tp82
a(g20
Vs
p83
F0.001876172607879925
tp84
a(Vp
p85
Vm
p86
F0.001876172607879925
tp87
a(V\u043e
p88
V\u0442
p89
F0.001876172607879925
tp90
a(V\u0440
p91
V\u0435
p92
F0.001876172607879925
tp93
a(g58
Va
p94
F0.001876172607879925
tp95
a(Vd
p96
Vv
p97
F0.001876172607879925
tp98
a(V\u044e
p99
V\u0443
p100
F0.009380863039399626
tp101
a(V\u044e
p102
V\u0438
p103
F0.001876172607879925
tp104
a(V\u043c
p105
V\u000a
p106
F0.001876172607879925
tp107
a(V\u043f
p108
V\u043d
p109
F0.001876172607879925
tp110
a(V\u0435
p111
V\u043d
p112
F0.001876172607879925
tp113
a(V\u0442
p114
V\u0432
p115
F0.001876172607879925
tp116
a(V\u0438
p117
V\u0456
p118
F0.001876172607879925
tp119
a(g81
Vl
p120
F0.001876172607879925
tp121
a(V\u0448
p122
V\u0449
p123
F0.001876172607879925
tp124
a(V\u043e
p125
V\u0430
p126
F0.0150093808630394
tp127
a(g81
g58
F0.001876172607879925
tp128
a(g64
V\u000a
p129
F0.001876172607879925
tp130
a(V\u043e
p131
V\u0441
p132
F0.001876172607879925
tp133
a(g94
Vr
p134
F0.001876172607879925
tp135
a(Vn
p136
g16
F0.001876172607879925
tp137
a(V\u0442
p138
V\u0434
p139
F0.001876172607879925
tp140
a(V\u043b
p141
V\u043e
p142
F0.001876172607879925
tp143
a(Vw
p144
g83
F0.001876172607879925
tp145
a(V\u0437
p146
V\u0441
p147
F0.0075046904315197
tp148
a(V\u043a
p149
V\u0441
p150
F0.001876172607879925
tp151
a(V\u0456
p152
V\u044b
p153
F0.001876172607879925
tp154
a(g94
Vu
p155
F0.001876172607879925
tp156
a(V\u043b
p157
V\u043d
p158
F0.001876172607879925
tp159
a(g64
g63
F0.001876172607879925
tp160
a(V\u0431
p161
V\u0434
p162
F0.001876172607879925
tp163
a(V\u0431
p164
V\u044c
p165
F0.001876172607879925
tp166
a(V\u0443
p167
V\u0446
p168
F0.001876172607879925
tp169
a(V\u0441
p170
V\u0437
p171
F0.00375234521575985
tp172
a(g94
Ve
p173
F0.001876172607879925
tp174
a(Vk
p175
g63
F0.001876172607879925
tp176
a(V\u0446
p177
V\u0442
p178
F0.001876172607879925
tp179
a(V\u044d
p180
V\u0435
p181
F0.005628517823639775
tp182
a(g64
Vj
p183
F0.001876172607879925
tp184
a(V\u0430
p185
V\u043e
p186
F0.03189493433395872
tp187
a(V\u0430
p188
V\u0443
p189
F0.001876172607879925
tp190
a(g63
g58
F0.001876172607879925
tp191
a(V\u0435
p192
V\u0430
p193
F0.005628517823639775
tp194
a(Vb
p195
g86
F0.001876172607879925
tp196
a(V\u0441
p197
V\u043c
p198
F0.001876172607879925
tp199
a(V\u043a
p200
V\u0433
p201
F0.005628517823639775
tp202
a(V\u043f
p203
V\u0430
p204
F0.001876172607879925
tp205
a(V\u0438
p206
V\u0435
p207
F0.01876172607879925
tp208
a(V\u043e
p209
V\u0435
p210
F0.001876172607879925
tp211
a(V\u0456
p212
V\u0439
p213
F0.001876172607879925
tp214
a(V\u0435
p215
V\u044f
p216
F0.00375234521575985
tp217
a(g16
g134
F0.001876172607879925
tp218
a(V\u0438
p219
V\u044b
p220
F0.009380863039399626
tp221
a(V\u0435
p222
V\u0456
p223
F0.001876172607879925
tp224
a(V\u0434
p225
V\u043b
p226
F0.001876172607879925
tp227
a(V\u0430
p228
V\u0441
p229
F0.001876172607879925
tp230
a(V\u0432
p231
V\u0430
p232
F0.001876172607879925
tp233
a(g96
g120
F0.001876172607879925
tp234
a(V\u0434
p235
V\u0442
p236
F0.005628517823639775
tp237
a(V\u043e
p238
V\u0443
p239
F0.009380863039399626
tp240
a(V\u0446
p241
V\u000a
p242
F0.001876172607879925
tp243
a(g155
g58
F0.001876172607879925
tp244
a(g155
g46
F0.001876172607879925
tp245
a(g183
g81
F0.001876172607879925
tp246
a(g175
Vq
p247
F0.001876172607879925
tp248
a(V\u0435
p249
V\u043a
p250
F0.001876172607879925
tp251
a(V\u043e
p252
V\u0438
p253
F0.001876172607879925
tp254
a(V\u0432
p255
V\u0441
p256
F0.001876172607879925
tp257
a(g81
g173
F0.005628517823639775
tp258
a(g97
g144
F0.001876172607879925
tp259
a(g63
g175
F0.00375234521575985
tp260
a(g94
V\u000a
p261
F0.001876172607879925
tp262
a(V\u0443
p263
V\u0438
p264
F0.001876172607879925
tp265
a(g155
g81
F0.001876172607879925
tp266
a(V\u0444
p267
V\u0440
p268
F0.001876172607879925
tp269
a(V\u0438
p270
V\u0439
p271
F0.00375234521575985
tp272
a(V\u0456
p273
V\u0435
p274
F0.001876172607879925
tp275
a(V\u043c
p276
V\u043d
p277
F0.00375234521575985
tp278
a(g46
g81
F0.001876172607879925
tp279
a(V\u0435
p280
V\u043e
p281
F0.001876172607879925
tp282
a(V\u0446
p283
V\u0439
p284
F0.001876172607879925
tp285
a(V\u0438
p286
V\u044c
p287
F0.00375234521575985
tp288
a(V\u0445
p289
V\u0439
p290
F0.001876172607879925
tp291
a(g46
g173
F0.001876172607879925
tp292
a(V\u043e
p293
V\u000a
p294
F0.001876172607879925
tp295
a(V\u0438
p296
V\u000a
p297
F0.001876172607879925
tp298
a(V\u0446
p299
V\u043a
p300
F0.001876172607879925
tp301
a(V\u044c
p302
V\u044e
p303
F0.001876172607879925
tp304
a(g173
g46
F0.001876172607879925
tp305
a(V\u0443
p306
V\u044e
p307
F0.001876172607879925
tp308
asS'ins'
p309
(lp310
(g136
F0.001876172607879925
tp311
a(V\u043a
p312
F0.005628517823639775
tp313
a(V\u043c
p314
F0.009380863039399626
tp315
a(V\u043e
p316
F0.005628517823639775
tp317
a(V\u044b
p318
F0.005628517823639775
tp319
a(g96
F0.00375234521575985
tp320
a(V\u000a
p321
F0.4202626641651032
tp322
a(V\u0430
p323
F0.013133208255159476
tp324
a(Vf
p325
F0.001876172607879925
tp326
a(g83
F0.00375234521575985
tp327
a(V\u044f
p328
F0.009380863039399626
tp329
a(V\u0434
p330
F0.005628517823639775
tp331
a(V\u0441
p332
F0.013133208255159476
tp333
a(V\u0443
p334
F0.001876172607879925
tp335
a(g81
F0.001876172607879925
tp336
a(V\u0445
p337
F0.00375234521575985
tp338
a(g175
F0.001876172607879925
tp339
a(V\u0439
p340
F0.00375234521575985
tp341
a(g58
F0.00375234521575985
tp342
a(V\u043b
p343
F0.01125703564727955
tp344
a(V\u043d
p345
F0.0150093808630394
tp346
a(g63
F0.001876172607879925
tp347
a(V\u043f
p348
F0.001876172607879925
tp349
a(g173
F0.00375234521575985
tp350
a(V\u044c
p351
F0.01125703564727955
tp352
a(g134
F0.001876172607879925
tp353
a(V\u0435
p354
F0.001876172607879925
tp355
a(g16
F0.005628517823639775
tp356
a(V\u0437
p357
F0.001876172607879925
tp358
a(V\u0440
p359
F0.00375234521575985
tp360
a(g97
F0.001876172607879925
tp361
a(V\u0442
p362
F0.013133208255159476
tp363
a(Vh
p364
F0.00375234521575985
tp365
a(g120
F0.001876172607879925
tp366
a(g46
F0.001876172607879925
tp367
a(V\u0438
p368
F0.00375234521575985
tp369
as.